target datalayout = "e-m:e-p270:32:32-p271:32:32-p272:64:64-i64:64-i128:128-f80:128-n8:16:32:64-S128"
target triple = "x86_64-pc-linux-gnu"

@netflow_handle = internal global ptr null, align 8
@.str.3343 = private unnamed_addr constant [9 x i8] c"udp.port\00", align 1
@.str.4708 = private unnamed_addr constant [10 x i8] c"sctp.port\00", align 1

; Function Attrs: null_pointer_is_valid sspstrong uwtable
define internal void @ipfix_add_callback(i32 noundef %0, ptr noundef %1) #0 {
  %3 = alloca i32, align 4
  %4 = alloca ptr, align 8
  store i32 %0, ptr %3, align 4
  store ptr %1, ptr %4, align 8
  %5 = load i32, ptr %3, align 4
  %6 = icmp ne i32 %5, 0
  br i1 %6, label %7, label %12

7:                                                ; preds = %2
  %8 = load i32, ptr %3, align 4
  %9 = load ptr, ptr @netflow_handle, align 8
  call void @dissector_add_uint(ptr noundef @.str.3343, i32 noundef %8, ptr noundef %9)
  %10 = load i32, ptr %3, align 4
  %11 = load ptr, ptr @netflow_handle, align 8
  call void @dissector_add_uint(ptr noundef @.str.4708, i32 noundef %10, ptr noundef %11)
  br label %12

12:                                               ; preds = %7, %2
  ret void
}